; Function Attrs: nounwind uwtable
define dso_local void @stable_init(ptr nocapture noundef writeonly %0, i32 noundef %1) local_unnamed_addr #2 {
  %3 = zext i32 %1 to i64
  %4 = mul nuw nsw i64 %3, 24
  %5 = tail call ptr @calloc_arena(i64 noundef %4) #12
  store i32 0, ptr %0, align 8
  %6 = getelementptr inbounds i8, ptr %0, i64 4
  store i32 %1, ptr %6, align 4
  %7 = uitofp i32 %1 to double
  %8 = fmul double %7, 5.000000e-01
  %9 = fptoui double %8 to i32
  %10 = getelementptr inbounds i8, ptr %0, i64 8
  store i32 %9, ptr %10, align 8
  %11 = getelementptr inbounds i8, ptr %0, i64 16
  store ptr %5, ptr %11, align 8
  ret void
}